target datalayout = "e-m:e-p270:32:32-p271:32:32-p272:64:64-i64:64-i128:128-f80:128-n8:16:32:64-S128"
target triple = "x86_64-pc-linux-gnu"

@hf_bthci_evt_tone_pct = internal global i32 0, align 4
@hf_bthci_evt_pct_i_sample = internal global i32 0, align 4
@hf_bthci_evt_pct_q_sample = internal global i32 0, align 4
@hf_bthci_evt_antenna_permutation_index = internal global i32 0, align 4
@hf_bthci_evt_tone_quality = internal global i32 0, align 4
@hf_bthci_evt_tone_extension_presence = internal global i32 0, align 4
@hf_bthci_evt_cs_tone = internal global i32 0, align 4
@.str.1428 = private unnamed_addr constant [5 x i8] c"Tone\00", align 1
@ett_cs_tone = internal global i32 0, align 4
@ett_cs_pct_sample = internal global i32 0, align 4
@.str.1824 = private unnamed_addr constant [1 x i8] zeroinitializer, align 1
@.str.1848 = private unnamed_addr constant [15 x i8] c"PCT I/Q Sample\00", align 1

; Function Attrs: null_pointer_is_valid sspstrong uwtable
define internal i32 @dissect_bthci_evt_cs_mode2_step(ptr noundef %0, i32 noundef %1, ptr noundef %2, ptr noundef %3, i8 noundef zeroext %4) #1 {
  %6 = alloca ptr, align 8
  %7 = alloca i32, align 4
  %8 = alloca ptr, align 8
  %9 = alloca ptr, align 8
  %10 = alloca i8, align 1
  %11 = alloca ptr, align 8
  %12 = alloca ptr, align 8
  %13 = alloca ptr, align 8
  %14 = alloca ptr, align 8
  %15 = alloca i8, align 1
  store ptr %0, ptr %6, align 8
  store i32 %1, ptr %7, align 4
  store ptr %2, ptr %8, align 8
  store ptr %3, ptr %9, align 8
  store i8 %4, ptr %10, align 1
  call void @llvm.lifetime.start.p0(i64 8, ptr %11) #11
  call void @llvm.lifetime.start.p0(i64 8, ptr %12) #11
  call void @llvm.lifetime.start.p0(i64 8, ptr %13) #11
  call void @llvm.lifetime.start.p0(i64 8, ptr %14) #11
  %16 = load ptr, ptr %9, align 8
  %17 = load i32, ptr @hf_bthci_evt_antenna_permutation_index, align 4
  %18 = load ptr, ptr %6, align 8
  %19 = load i32, ptr %7, align 4
  %20 = call ptr @proto_tree_add_item(ptr noundef %16, i32 noundef %17, ptr noundef %18, i32 noundef %19, i32 noundef 1, i32 noundef 0)
  %21 = load i32, ptr %7, align 4
  %22 = add i32 %21, 1
  store i32 %22, ptr %7, align 4
  call void @llvm.lifetime.start.p0(i64 1, ptr %15) #11
  %23 = load i8, ptr %10, align 1
  %24 = zext i8 %23 to i32
  %25 = sub i32 %24, 1
  %26 = sdiv i32 %25, 4
  %27 = trunc i32 %26 to i8
  store i8 %27, ptr %15, align 1
  br label %28

28:                                               ; preds = %32, %5
  %29 = load i8, ptr %15, align 1
  %30 = add i8 %29, -1
  store i8 %30, ptr %15, align 1
  %31 = icmp ne i8 %29, 0
  br i1 %31, label %32, label %73

32:                                               ; preds = %28
  %33 = load ptr, ptr %9, align 8
  %34 = load i32, ptr @hf_bthci_evt_cs_tone, align 4
  %35 = load ptr, ptr %6, align 8
  %36 = load i32, ptr %7, align 4
  %37 = call ptr (ptr, i32, ptr, i32, i32, ptr, ptr, ...) @proto_tree_add_string_format(ptr noundef %33, i32 noundef %34, ptr noundef %35, i32 noundef %36, i32 noundef 4, ptr noundef @.str.1824, ptr noundef @.str.1428)
  store ptr %37, ptr %13, align 8
  %38 = load ptr, ptr %13, align 8
  %39 = load i32, ptr @ett_cs_tone, align 4
  %40 = call ptr @proto_item_add_subtree(ptr noundef %38, i32 noundef %39)
  store ptr %40, ptr %11, align 8
  %41 = load ptr, ptr %11, align 8
  %42 = load i32, ptr @hf_bthci_evt_tone_pct, align 4
  %43 = load ptr, ptr %6, align 8
  %44 = load i32, ptr %7, align 4
  %45 = call ptr (ptr, i32, ptr, i32, i32, ptr, ptr, ...) @proto_tree_add_string_format(ptr noundef %41, i32 noundef %42, ptr noundef %43, i32 noundef %44, i32 noundef 3, ptr noundef @.str.1824, ptr noundef @.str.1848)
  store ptr %45, ptr %14, align 8
  %46 = load ptr, ptr %14, align 8
  %47 = load i32, ptr @ett_cs_pct_sample, align 4
  %48 = call ptr @proto_item_add_subtree(ptr noundef %46, i32 noundef %47)
  store ptr %48, ptr %12, align 8
  %49 = load ptr, ptr %12, align 8
  %50 = load i32, ptr @hf_bthci_evt_pct_i_sample, align 4
  %51 = load ptr, ptr %6, align 8
  %52 = load i32, ptr %7, align 4
  %53 = call ptr @proto_tree_add_item(ptr noundef %49, i32 noundef %50, ptr noundef %51, i32 noundef %52, i32 noundef 3, i32 noundef -2147483648)
  %54 = load ptr, ptr %12, align 8
  %55 = load i32, ptr @hf_bthci_evt_pct_q_sample, align 4
  %56 = load ptr, ptr %6, align 8
  %57 = load i32, ptr %7, align 4
  %58 = call ptr @proto_tree_add_item(ptr noundef %54, i32 noundef %55, ptr noundef %56, i32 noundef %57, i32 noundef 3, i32 noundef -2147483648)
  %59 = load i32, ptr %7, align 4
  %60 = add i32 %59, 3
  store i32 %60, ptr %7, align 4
  %61 = load ptr, ptr %11, align 8
  %62 = load i32, ptr @hf_bthci_evt_tone_quality, align 4
  %63 = load ptr, ptr %6, align 8
  %64 = load i32, ptr %7, align 4
  %65 = call ptr @proto_tree_add_item(ptr noundef %61, i32 noundef %62, ptr noundef %63, i32 noundef %64, i32 noundef 1, i32 noundef 0)
  %66 = load ptr, ptr %11, align 8
  %67 = load i32, ptr @hf_bthci_evt_tone_extension_presence, align 4
  %68 = load ptr, ptr %6, align 8
  %69 = load i32, ptr %7, align 4
  %70 = call ptr @proto_tree_add_item(ptr noundef %66, i32 noundef %67, ptr noundef %68, i32 noundef %69, i32 noundef 1, i32 noundef 0)
  %71 = load i32, ptr %7, align 4
  %72 = add i32 %71, 1
  store i32 %72, ptr %7, align 4
  br label %28, !llvm.loop !32

73:                                               ; preds = %28
  %74 = load i32, ptr %7, align 4
  call void @llvm.lifetime.end.p0(i64 1, ptr %15) #11
  call void @llvm.lifetime.end.p0(i64 8, ptr %14) #11
  call void @llvm.lifetime.end.p0(i64 8, ptr %13) #11
  call void @llvm.lifetime.end.p0(i64 8, ptr %12) #11
  call void @llvm.lifetime.end.p0(i64 8, ptr %11) #11
  ret i32 %74
}