; Function Attrs: null_pointer_is_valid sspstrong uwtable
define internal fastcc noundef i32 @dissect_bthci_evt_cs_mode2_step(ptr noundef %0, i32 noundef %1, ptr noundef %2, i8 noundef zeroext %3) unnamed_addr #1 {
  %5 = load i32, ptr @hf_bthci_evt_antenna_permutation_index, align 4
  %6 = tail call ptr @proto_tree_add_item(ptr noundef %2, i32 noundef %5, ptr noundef %0, i32 noundef %1, i32 noundef 1, i32 noundef 0)
  %.0281 = add i32 %1, 1
  %.not2 = icmp ult i8 %3, 5
  br i1 %.not2, label %._crit_edge, label %.lr.ph.preheader

.lr.ph.preheader:                                 ; preds = %4
  %.lhs.trunc = add i8 %3, -1
  %7 = lshr i8 %.lhs.trunc, 2
  br label %.lr.ph

.lr.ph:                                           ; preds = %.lr.ph.preheader, %.lr.ph
  %.0285 = phi i32 [ %.028, %.lr.ph ], [ %.0281, %.lr.ph.preheader ]
  %.04 = phi i8 [ %8, %.lr.ph ], [ %7, %.lr.ph.preheader ]
  %.028.in3 = phi i32 [ %21, %.lr.ph ], [ %1, %.lr.ph.preheader ]
  %8 = add i8 %.04, -1
  %9 = load i32, ptr @hf_bthci_evt_cs_tone, align 4
  %10 = tail call ptr (ptr, i32, ptr, i32, i32, ptr, ptr, ...) @proto_tree_add_string_format(ptr noundef %2, i32 noundef %9, ptr noundef %0, i32 noundef %.0285, i32 noundef 4, ptr noundef nonnull @.str.1824, ptr noundef nonnull @.str.1428)
  %11 = load i32, ptr @ett_cs_tone, align 4
  %12 = tail call ptr @proto_item_add_subtree(ptr noundef %10, i32 noundef %11)
  %13 = load i32, ptr @hf_bthci_evt_tone_pct, align 4
  %14 = tail call ptr (ptr, i32, ptr, i32, i32, ptr, ptr, ...) @proto_tree_add_string_format(ptr noundef %12, i32 noundef %13, ptr noundef %0, i32 noundef %.0285, i32 noundef 3, ptr noundef nonnull @.str.1824, ptr noundef nonnull @.str.1848)
  %15 = load i32, ptr @ett_cs_pct_sample, align 4
  %16 = tail call ptr @proto_item_add_subtree(ptr noundef %14, i32 noundef %15)
  %17 = load i32, ptr @hf_bthci_evt_pct_i_sample, align 4
  %18 = tail call ptr @proto_tree_add_item(ptr noundef %16, i32 noundef %17, ptr noundef %0, i32 noundef %.0285, i32 noundef 3, i32 noundef -2147483648)
  %19 = load i32, ptr @hf_bthci_evt_pct_q_sample, align 4
  %20 = tail call ptr @proto_tree_add_item(ptr noundef %16, i32 noundef %19, ptr noundef %0, i32 noundef %.0285, i32 noundef 3, i32 noundef -2147483648)
  %21 = add i32 %.028.in3, 4
  %22 = load i32, ptr @hf_bthci_evt_tone_quality, align 4
  %23 = tail call ptr @proto_tree_add_item(ptr noundef %12, i32 noundef %22, ptr noundef %0, i32 noundef %21, i32 noundef 1, i32 noundef 0)
  %24 = load i32, ptr @hf_bthci_evt_tone_extension_presence, align 4
  %25 = tail call ptr @proto_tree_add_item(ptr noundef %12, i32 noundef %24, ptr noundef %0, i32 noundef %21, i32 noundef 1, i32 noundef 0)
  %.028 = add i32 %.028.in3, 5
  %.not = icmp eq i8 %8, 0
  br i1 %.not, label %._crit_edge, label %.lr.ph, !llvm.loop !32

._crit_edge:                                      ; preds = %.lr.ph, %4
  %.028.lcssa = phi i32 [ %.0281, %4 ], [ %.028, %.lr.ph ]
  ret i32 %.028.lcssa
}